target datalayout = "e-m:e-p270:32:32-p271:32:32-p272:64:64-i64:64-i128:128-f80:128-n8:16:32:64-S128"
target triple = "x86_64-pc-linux-gnu"

%class.UPerfTest = type { ptr, i32, ptr, ptr, ptr, ptr, ptr, i8, ptr, ptr, i32, ptr, i32, i8, ptr, i32, i8, i8, i32, i32, i32, ptr, ptr, ptr }

@.str = private unnamed_addr constant [1 x i8] zeroinitializer, align 1
@.str.1 = private unnamed_addr constant [2 x i8] c".\00", align 1

; Function Attrs: mustprogress uwtable
define void @_ZN9UPerfTestC2EiPPKcR10UErrorCode(ptr noundef nonnull align 8 dereferenceable(160) %0, i32 noundef %1, ptr noundef %2, ptr noundef nonnull align 4 dereferenceable(4) %3) unnamed_addr #2 align 2 {
  %5 = alloca ptr, align 8
  %6 = alloca i32, align 4
  %7 = alloca ptr, align 8
  %8 = alloca ptr, align 8
  store ptr %0, ptr %5, align 8, !tbaa !8
  store i32 %1, ptr %6, align 4, !tbaa !10
  store ptr %2, ptr %7, align 8, !tbaa !12
  store ptr %3, ptr %8, align 8, !tbaa !15
  %9 = load ptr, ptr %5, align 8
  store ptr getelementptr inbounds inrange(-16, 48) ({ [8 x ptr] }, ptr @_ZTV9UPerfTest, i32 0, i32 0, i32 2), ptr %9, align 8, !tbaa !16
  %10 = getelementptr inbounds nuw %class.UPerfTest, ptr %9, i32 0, i32 1
  %11 = load i32, ptr %6, align 4, !tbaa !10
  store i32 %11, ptr %10, align 8, !tbaa !18
  %12 = getelementptr inbounds nuw %class.UPerfTest, ptr %9, i32 0, i32 2
  %13 = load ptr, ptr %7, align 8, !tbaa !12
  store ptr %13, ptr %12, align 8, !tbaa !24
  %14 = getelementptr inbounds nuw %class.UPerfTest, ptr %9, i32 0, i32 3
  store ptr null, ptr %14, align 8, !tbaa !25
  %15 = getelementptr inbounds nuw %class.UPerfTest, ptr %9, i32 0, i32 5
  store ptr null, ptr %15, align 8, !tbaa !26
  %16 = getelementptr inbounds nuw %class.UPerfTest, ptr %9, i32 0, i32 6
  store ptr @.str, ptr %16, align 8, !tbaa !27
  %17 = getelementptr inbounds nuw %class.UPerfTest, ptr %9, i32 0, i32 7
  store i8 0, ptr %17, align 8, !tbaa !28
  %18 = getelementptr inbounds nuw %class.UPerfTest, ptr %9, i32 0, i32 8
  store ptr null, ptr %18, align 8, !tbaa !29
  %19 = getelementptr inbounds nuw %class.UPerfTest, ptr %9, i32 0, i32 9
  store ptr @.str.1, ptr %19, align 8, !tbaa !30
  %20 = getelementptr inbounds nuw %class.UPerfTest, ptr %9, i32 0, i32 11
  store ptr null, ptr %20, align 8, !tbaa !31
  %21 = getelementptr inbounds nuw %class.UPerfTest, ptr %9, i32 0, i32 12
  store i32 0, ptr %21, align 8, !tbaa !32
  %22 = getelementptr inbounds nuw %class.UPerfTest, ptr %9, i32 0, i32 13
  store i8 1, ptr %22, align 4, !tbaa !33
  %23 = getelementptr inbounds nuw %class.UPerfTest, ptr %9, i32 0, i32 14
  store ptr null, ptr %23, align 8, !tbaa !34
  %24 = getelementptr inbounds nuw %class.UPerfTest, ptr %9, i32 0, i32 15
  store i32 0, ptr %24, align 8, !tbaa !35
  %25 = getelementptr inbounds nuw %class.UPerfTest, ptr %9, i32 0, i32 16
  store i8 0, ptr %25, align 4, !tbaa !36
  %26 = getelementptr inbounds nuw %class.UPerfTest, ptr %9, i32 0, i32 17
  store i8 0, ptr %26, align 1, !tbaa !37
  %27 = getelementptr inbounds nuw %class.UPerfTest, ptr %9, i32 0, i32 18
  store i32 1, ptr %27, align 8, !tbaa !38
  %28 = getelementptr inbounds nuw %class.UPerfTest, ptr %9, i32 0, i32 19
  store i32 0, ptr %28, align 4, !tbaa !39
  %29 = getelementptr inbounds nuw %class.UPerfTest, ptr %9, i32 0, i32 20
  store i32 0, ptr %29, align 8, !tbaa !40
  %30 = getelementptr inbounds nuw %class.UPerfTest, ptr %9, i32 0, i32 21
  store ptr null, ptr %30, align 8, !tbaa !41
  %31 = load ptr, ptr %8, align 8, !tbaa !15
  call void @_ZN9UPerfTest4initEP7UOptioniR10UErrorCode(ptr noundef nonnull align 8 dereferenceable(160) %9, ptr noundef null, i32 noundef 0, ptr noundef nonnull align 4 dereferenceable(4) %31)
  ret void
}