; Function Attrs: mustprogress uwtable
define void @_ZN9UPerfTestC2EiPPKcR10UErrorCode(ptr noundef nonnull align 8 dereferenceable(160) initializes((0, 12), (16, 57), (64, 84), (88, 101), (104, 118), (120, 132), (136, 144)) %0, i32 noundef %1, ptr noundef %2, ptr noundef nonnull align 4 dereferenceable(4) %3) unnamed_addr #3 align 2 {
  store ptr getelementptr inbounds nuw inrange(-16, 48) (i8, ptr @_ZTV9UPerfTest, i64 16), ptr %0, align 8, !tbaa !3
  %5 = getelementptr inbounds nuw i8, ptr %0, i64 8
  store i32 %1, ptr %5, align 8, !tbaa !6
  %6 = getelementptr inbounds nuw i8, ptr %0, i64 16
  store ptr %2, ptr %6, align 8, !tbaa !18
  %7 = getelementptr inbounds nuw i8, ptr %0, i64 24
  store ptr null, ptr %7, align 8, !tbaa !19
  %8 = getelementptr inbounds nuw i8, ptr %0, i64 40
  store ptr null, ptr %8, align 8, !tbaa !20
  %9 = getelementptr inbounds nuw i8, ptr %0, i64 48
  store ptr @.str, ptr %9, align 8, !tbaa !21
  %10 = getelementptr inbounds nuw i8, ptr %0, i64 56
  store i8 0, ptr %10, align 8, !tbaa !22
  %11 = getelementptr inbounds nuw i8, ptr %0, i64 64
  store ptr null, ptr %11, align 8, !tbaa !23
  %12 = getelementptr inbounds nuw i8, ptr %0, i64 72
  store ptr @.str.1, ptr %12, align 8, !tbaa !24
  %13 = getelementptr inbounds nuw i8, ptr %0, i64 88
  store ptr null, ptr %13, align 8, !tbaa !25
  %14 = getelementptr inbounds nuw i8, ptr %0, i64 96
  store i32 0, ptr %14, align 8, !tbaa !26
  %15 = getelementptr inbounds nuw i8, ptr %0, i64 100
  store i8 1, ptr %15, align 4, !tbaa !27
  %16 = getelementptr inbounds nuw i8, ptr %0, i64 104
  %17 = getelementptr inbounds nuw i8, ptr %0, i64 120
  tail call void @llvm.memset.p0.i64(ptr noundef nonnull align 8 dereferenceable(14) %16, i8 0, i64 14, i1 false)
  store i32 1, ptr %17, align 8, !tbaa !28
  %18 = getelementptr inbounds nuw i8, ptr %0, i64 124
  store i32 0, ptr %18, align 4, !tbaa !29
  %19 = getelementptr inbounds nuw i8, ptr %0, i64 128
  store i32 0, ptr %19, align 8, !tbaa !30
  %20 = getelementptr inbounds nuw i8, ptr %0, i64 136
  store ptr null, ptr %20, align 8, !tbaa !31
  tail call void @_ZN9UPerfTest4initEP7UOptioniR10UErrorCode(ptr noundef nonnull align 8 dereferenceable(160) %0, ptr noundef null, i32 noundef 0, ptr noundef nonnull align 4 dereferenceable(4) %3)
  ret void
}